target datalayout = "e-m:e-p270:32:32-p271:32:32-p272:64:64-i64:64-i128:128-f80:128-n8:16:32:64-S128"
target triple = "x86_64-pc-linux-gnu"

%struct.MpegEncContext = type { ptr, i32, i32, i32, [12 x i32], i32, %struct.ScanTable, %struct.ScanTable, [64 x i8], [64 x i8], ptr, ptr, i32, i32, i32, i32, i32, i32, i32, i32, i32, i32, i32, i32, i32, i32, i32, i32, i32, i32, i32, i32, i64, i64, ptr, %struct.BufferPoolContext, i32, i32, %union.anon, i32, %struct.MPVWorkPicture, %struct.MPVWorkPicture, %struct.MPVWorkPicture, i32, [3 x i32], ptr, [3 x ptr], ptr, ptr, ptr, ptr, ptr, ptr, [3 x ptr], i32, ptr, ptr, ptr, ptr, %struct.ScratchpadContext, i32, i32, i32, i32, i32, i32, %struct.BlockDSPContext, %struct.H264ChromaContext, %struct.HpelDSPContext, %struct.IDCTDSPContext, %struct.QpelDSPContext, %struct.VideoDSPContext, %struct.H263DSPContext, ptr, [2 x [2 x ptr]], i32, i32, [2 x [4 x [2 x i32]]], [2 x [2 x i32]], [2 x [2 x [2 x i32]]], [2 x [64 x i16]], i32, i32, i32, i32, i32, [6 x i32], [6 x i32], [3 x ptr], ptr, [64 x i16], [64 x i16], [64 x i16], [64 x i16], i32, i32, %struct.GetBitContext, i32, i32, i32, i32, i32, i32, i32, i32, i32, i32, i32, i32, i32, i32, i32, i64, i64, i16, i16, i16, i16, i32, i32, i32, i32, i32, i32, i32, i32, i32, [3 x i32], i32, i32, i32, i32, i32, i32, %struct.GetBitContext, i32, [2 x [2 x i32]], i32, i32, i32, i32, i32, i32, i32, i32, i32, i32, i32, i32, i32, i32, [2 x i32], i32, i32, ptr, ptr, ptr, ptr, ptr, i32, i32, %struct.ERContext }
%struct.ScanTable = type { ptr, [64 x i8], [64 x i8] }
%struct.BufferPoolContext = type { ptr, ptr, ptr, ptr, ptr, i32, i32, i32 }
%union.anon = type { [32 x ptr] }
%struct.MPVWorkPicture = type { [3 x ptr], [3 x i64], ptr, ptr, [2 x ptr], ptr, ptr, [2 x ptr], i32 }
%struct.ScratchpadContext = type { ptr, ptr, %union.anon.0, i32 }
%union.anon.0 = type { ptr }
%struct.BlockDSPContext = type { ptr, ptr, [2 x ptr] }
%struct.H264ChromaContext = type { [4 x ptr], [4 x ptr] }
%struct.HpelDSPContext = type { [4 x [4 x ptr]], [4 x [4 x ptr]], [4 x [4 x ptr]], [4 x ptr] }
%struct.IDCTDSPContext = type { ptr, ptr, ptr, ptr, ptr, ptr, [64 x i8], i32, i32 }
%struct.QpelDSPContext = type { [2 x [16 x ptr]], [2 x [16 x ptr]], [2 x [16 x ptr]] }
%struct.VideoDSPContext = type { ptr, ptr }
%struct.H263DSPContext = type { ptr, ptr }
%struct.GetBitContext = type { ptr, ptr, i32, i32, i32 }
%struct.ERContext = type { ptr, ptr, i32, ptr, i32, i32, i32, i64, i64, i32, i32, ptr, ptr, [3 x ptr], ptr, ptr, [2 x [4 x [2 x i32]]], %struct.ERPicture, %struct.ERPicture, %struct.ERPicture, [2 x ptr], [2 x ptr], i16, i16, i32, i32, ptr, ptr }
%struct.ERPicture = type { ptr, ptr, ptr, [2 x ptr], [2 x ptr], ptr, i32 }
%struct.AVCodecContext = type { ptr, i32, i32, ptr, i32, i32, ptr, ptr, ptr, i64, i32, i32, ptr, i32, %struct.AVRational, %struct.AVRational, %struct.AVRational, i32, i32, i32, i32, i32, %struct.AVRational, i32, i32, i32, i32, i32, i32, i32, i32, i32, i32, i32, ptr, ptr, i32, float, float, float, float, float, float, float, float, float, i32, i32, i32, i32, i32, i32, i32, i32, i32, i32, i32, i32, ptr, ptr, ptr, i32, i32, i32, i32, i32, i32, i32, i32, i32, i32, %struct.AVChannelLayout, i32, i32, i32, i32, i32, i32, i32, i32, ptr, i32, i32, i32, float, float, i32, i32, i32, i32, i32, ptr, i64, i64, float, float, i32, i32, ptr, ptr, i32, i32, i32, i32, i32, ptr, ptr, ptr, ptr, i32, i32, [8 x i64], i32, i32, i32, i32, i32, i32, i32, ptr, ptr, i32, i32, i32, i32, i32, i32, i32, i32, i32, i32, ptr, ptr, i32, i32, ptr, ptr, ptr, ptr, i32, i32, i64, i32, i32, i64, ptr, i64, ptr, i32, ptr, i32 }
%struct.AVRational = type { i32, i32 }
%struct.AVChannelLayout = type { i32, i32, %union.anon.1, ptr }
%union.anon.1 = type { i64 }
%struct.MPVPicture = type { ptr, ptr, ptr, [2 x ptr], [2 x ptr], ptr, ptr, ptr, [2 x ptr], ptr, i32, i32, i32, i32, i32, i32, i32, i32, i32, i32, %struct.ThreadProgress }
%struct.ThreadProgress = type { i32, i32, %union.pthread_mutex_t, %union.pthread_cond_t }
%union.pthread_mutex_t = type { %struct.__pthread_mutex_s }
%struct.__pthread_mutex_s = type { i32, i32, i32, i32, i32, i16, i16, %struct.__pthread_internal_list }
%struct.__pthread_internal_list = type { ptr, ptr }
%union.pthread_cond_t = type { %struct.__pthread_cond_s }
%struct.__pthread_cond_s = type { %union.__atomic_wide_counter, %union.__atomic_wide_counter, [2 x i32], [2 x i32], i32, i32, [2 x i32] }
%union.__atomic_wide_counter = type { i64 }
%struct.AVFrame = type { [8 x ptr], [8 x i32], ptr, i32, i32, i32, i32, i32, %struct.AVRational, i64, i64, %struct.AVRational, i32, ptr, i32, i32, [8 x ptr], ptr, i32, ptr, i32, i32, i32, i32, i32, i32, i32, i64, ptr, i32, ptr, ptr, i64, i64, i64, i64, ptr, %struct.AVChannelLayout, i64 }

; Function Attrs: nounwind uwtable
define internal i32 @alloc_picture(ptr noundef %0, ptr noundef %1, i32 noundef %2) #3 {
  %4 = alloca i32, align 4
  %5 = alloca ptr, align 8
  %6 = alloca ptr, align 8
  %7 = alloca i32, align 4
  %8 = alloca ptr, align 8
  %9 = alloca ptr, align 8
  %10 = alloca i32, align 4
  %11 = alloca i32, align 4
  store ptr %0, ptr %5, align 8, !tbaa !4
  store ptr %1, ptr %6, align 8, !tbaa !92
  store i32 %2, ptr %7, align 4, !tbaa !68
  call void @llvm.lifetime.start.p0(i64 8, ptr %8) #11
  %12 = load ptr, ptr %5, align 8, !tbaa !4
  %13 = getelementptr inbounds nuw %struct.MpegEncContext, ptr %12, i32 0, i32 10
  %14 = load ptr, ptr %13, align 8, !tbaa !11
  store ptr %14, ptr %8, align 8, !tbaa !9
  call void @llvm.lifetime.start.p0(i64 8, ptr %9) #11
  %15 = load ptr, ptr %5, align 8, !tbaa !4
  %16 = getelementptr inbounds nuw %struct.MpegEncContext, ptr %15, i32 0, i32 34
  %17 = load ptr, ptr %16, align 8, !tbaa !67
  %18 = call ptr @av_refstruct_pool_get(ptr noundef %17)
  store ptr %18, ptr %9, align 8, !tbaa !95
  call void @llvm.lifetime.start.p0(i64 4, ptr %10) #11
  %19 = load ptr, ptr %9, align 8, !tbaa !95
  %20 = icmp ne ptr %19, null
  br i1 %20, label %22, label %21

21:                                               ; preds = %3
  store i32 -12, ptr %4, align 4
  store i32 1, ptr %11, align 4
  br label %124

22:                                               ; preds = %3
  %23 = load ptr, ptr %9, align 8, !tbaa !95
  %24 = load ptr, ptr %6, align 8, !tbaa !92
  %25 = getelementptr inbounds nuw %struct.MPVWorkPicture, ptr %24, i32 0, i32 2
  store ptr %23, ptr %25, align 8, !tbaa !94
  %26 = load i32, ptr %7, align 4, !tbaa !68
  %27 = load ptr, ptr %9, align 8, !tbaa !95
  %28 = getelementptr inbounds nuw %struct.MPVPicture, ptr %27, i32 0, i32 16
  store i32 %26, ptr %28, align 8, !tbaa !119
  %29 = load ptr, ptr %8, align 8, !tbaa !9
  %30 = getelementptr inbounds nuw %struct.AVCodecContext, ptr %29, i32 0, i32 4
  %31 = load i32, ptr %30, align 8, !tbaa !120
  %32 = icmp ne i32 %31, 150
  br i1 %32, label %33, label %52

33:                                               ; preds = %22
  %34 = load ptr, ptr %8, align 8, !tbaa !9
  %35 = getelementptr inbounds nuw %struct.AVCodecContext, ptr %34, i32 0, i32 4
  %36 = load i32, ptr %35, align 8, !tbaa !120
  %37 = icmp ne i32 %36, 151
  br i1 %37, label %38, label %52

38:                                               ; preds = %33
  %39 = load ptr, ptr %8, align 8, !tbaa !9
  %40 = getelementptr inbounds nuw %struct.AVCodecContext, ptr %39, i32 0, i32 4
  %41 = load i32, ptr %40, align 8, !tbaa !120
  %42 = icmp ne i32 %41, 166
  br i1 %42, label %43, label %52

43:                                               ; preds = %38
  %44 = load ptr, ptr %8, align 8, !tbaa !9
  %45 = load ptr, ptr %9, align 8, !tbaa !95
  %46 = getelementptr inbounds nuw %struct.MPVPicture, ptr %45, i32 0, i32 0
  %47 = load ptr, ptr %46, align 8, !tbaa !88
  %48 = load i32, ptr %7, align 4, !tbaa !68
  %49 = icmp ne i32 %48, 0
  %50 = select i1 %49, i32 1, i32 0
  %51 = call i32 @ff_thread_get_buffer(ptr noundef %44, ptr noundef %47, i32 noundef %50)
  store i32 %51, ptr %10, align 4, !tbaa !68
  br label %79

52:                                               ; preds = %38, %33, %22
  %53 = load ptr, ptr %8, align 8, !tbaa !9
  %54 = getelementptr inbounds nuw %struct.AVCodecContext, ptr %53, i32 0, i32 18
  %55 = load i32, ptr %54, align 8, !tbaa !121
  %56 = load ptr, ptr %9, align 8, !tbaa !95
  %57 = getelementptr inbounds nuw %struct.MPVPicture, ptr %56, i32 0, i32 0
  %58 = load ptr, ptr %57, align 8, !tbaa !88
  %59 = getelementptr inbounds nuw %struct.AVFrame, ptr %58, i32 0, i32 3
  store i32 %55, ptr %59, align 8, !tbaa !104
  %60 = load ptr, ptr %8, align 8, !tbaa !9
  %61 = getelementptr inbounds nuw %struct.AVCodecContext, ptr %60, i32 0, i32 19
  %62 = load i32, ptr %61, align 4, !tbaa !122
  %63 = load ptr, ptr %9, align 8, !tbaa !95
  %64 = getelementptr inbounds nuw %struct.MPVPicture, ptr %63, i32 0, i32 0
  %65 = load ptr, ptr %64, align 8, !tbaa !88
  %66 = getelementptr inbounds nuw %struct.AVFrame, ptr %65, i32 0, i32 4
  store i32 %62, ptr %66, align 4, !tbaa !98
  %67 = load ptr, ptr %8, align 8, !tbaa !9
  %68 = getelementptr inbounds nuw %struct.AVCodecContext, ptr %67, i32 0, i32 23
  %69 = load i32, ptr %68, align 8, !tbaa !78
  %70 = load ptr, ptr %9, align 8, !tbaa !95
  %71 = getelementptr inbounds nuw %struct.MPVPicture, ptr %70, i32 0, i32 0
  %72 = load ptr, ptr %71, align 8, !tbaa !88
  %73 = getelementptr inbounds nuw %struct.AVFrame, ptr %72, i32 0, i32 6
  store i32 %69, ptr %73, align 4, !tbaa !107
  %74 = load ptr, ptr %8, align 8, !tbaa !9
  %75 = load ptr, ptr %9, align 8, !tbaa !95
  %76 = getelementptr inbounds nuw %struct.MPVPicture, ptr %75, i32 0, i32 0
  %77 = load ptr, ptr %76, align 8, !tbaa !88
  %78 = call i32 @avcodec_default_get_buffer2(ptr noundef %74, ptr noundef %77, i32 noundef 0)
  store i32 %78, ptr %10, align 4, !tbaa !68
  br label %79

79:                                               ; preds = %52, %43
  %80 = load i32, ptr %10, align 4, !tbaa !68
  %81 = icmp slt i32 %80, 0
  br i1 %81, label %82, label %83

82:                                               ; preds = %79
  br label %121

83:                                               ; preds = %79
  %84 = load ptr, ptr %8, align 8, !tbaa !9
  %85 = load ptr, ptr %9, align 8, !tbaa !95
  %86 = getelementptr inbounds nuw %struct.MPVPicture, ptr %85, i32 0, i32 0
  %87 = load ptr, ptr %86, align 8, !tbaa !88
  %88 = load ptr, ptr %5, align 8, !tbaa !4
  %89 = getelementptr inbounds nuw %struct.MpegEncContext, ptr %88, i32 0, i32 32
  %90 = load ptr, ptr %5, align 8, !tbaa !4
  %91 = getelementptr inbounds nuw %struct.MpegEncContext, ptr %90, i32 0, i32 33
  %92 = call i32 @ff_mpv_pic_check_linesize(ptr noundef %84, ptr noundef %87, ptr noundef %89, ptr noundef %91)
  store i32 %92, ptr %10, align 4, !tbaa !68
  %93 = load i32, ptr %10, align 4, !tbaa !68
  %94 = icmp slt i32 %93, 0
  br i1 %94, label %95, label %96

95:                                               ; preds = %83
  br label %121

96:                                               ; preds = %83
  %97 = load ptr, ptr %8, align 8, !tbaa !9
  %98 = load ptr, ptr %9, align 8, !tbaa !95
  %99 = getelementptr inbounds nuw %struct.MPVPicture, ptr %98, i32 0, i32 9
  %100 = call i32 @ff_hwaccel_frame_priv_alloc(ptr noundef %97, ptr noundef %99)
  store i32 %100, ptr %10, align 4, !tbaa !68
  %101 = load i32, ptr %10, align 4, !tbaa !68
  %102 = icmp slt i32 %101, 0
  br i1 %102, label %103, label %104

103:                                              ; preds = %96
  br label %121

104:                                              ; preds = %96
  %105 = load ptr, ptr %5, align 8, !tbaa !4
  %106 = getelementptr inbounds nuw %struct.MpegEncContext, ptr %105, i32 0, i32 10
  %107 = load ptr, ptr %106, align 8, !tbaa !11
  %108 = load ptr, ptr %6, align 8, !tbaa !92
  %109 = load ptr, ptr %5, align 8, !tbaa !4
  %110 = getelementptr inbounds nuw %struct.MpegEncContext, ptr %109, i32 0, i32 59
  %111 = load ptr, ptr %5, align 8, !tbaa !4
  %112 = getelementptr inbounds nuw %struct.MpegEncContext, ptr %111, i32 0, i32 35
  %113 = load ptr, ptr %5, align 8, !tbaa !4
  %114 = getelementptr inbounds nuw %struct.MpegEncContext, ptr %113, i32 0, i32 26
  %115 = load i32, ptr %114, align 8, !tbaa !123
  %116 = call i32 @ff_mpv_alloc_pic_accessories(ptr noundef %107, ptr noundef %108, ptr noundef %110, ptr noundef %112, i32 noundef %115)
  store i32 %116, ptr %10, align 4, !tbaa !68
  %117 = load i32, ptr %10, align 4, !tbaa !68
  %118 = icmp slt i32 %117, 0
  br i1 %118, label %119, label %120

119:                                              ; preds = %104
  br label %121

120:                                              ; preds = %104
  store i32 0, ptr %4, align 4
  store i32 1, ptr %11, align 4
  br label %124

121:                                              ; preds = %119, %103, %95, %82
  %122 = load ptr, ptr %6, align 8, !tbaa !92
  call void @ff_mpv_unref_picture(ptr noundef %122)
  %123 = load i32, ptr %10, align 4, !tbaa !68
  store i32 %123, ptr %4, align 4
  store i32 1, ptr %11, align 4
  br label %124

124:                                              ; preds = %121, %120, %21
  call void @llvm.lifetime.end.p0(i64 4, ptr %10) #11
  call void @llvm.lifetime.end.p0(i64 8, ptr %9) #11
  call void @llvm.lifetime.end.p0(i64 8, ptr %8) #11
  %125 = load i32, ptr %4, align 4
  ret i32 %125
}