; Function Attrs: nounwind uwtable
define internal fastcc range(i32 -2147483648, 1) i32 @alloc_picture(ptr noundef %0, ptr noundef %1, i32 noundef range(i32 0, 2) %2) unnamed_addr #3 {
  %4 = getelementptr inbounds nuw i8, ptr %0, i64 472
  %5 = load ptr, ptr %4, align 8, !tbaa !4
  %6 = getelementptr inbounds nuw i8, ptr %0, i64 584
  %7 = load ptr, ptr %6, align 8, !tbaa !64
  %8 = tail call ptr @av_refstruct_pool_get(ptr noundef %7) #10
  %.not = icmp eq ptr %8, null
  br i1 %.not, label %50, label %9

9:                                                ; preds = %3
  %10 = getelementptr inbounds nuw i8, ptr %1, i64 48
  store ptr %8, ptr %10, align 8, !tbaa !86
  %11 = getelementptr inbounds nuw i8, ptr %8, i64 128
  store i32 %2, ptr %11, align 8, !tbaa !110
  %12 = getelementptr inbounds nuw i8, ptr %5, i64 24
  %13 = load i32, ptr %12, align 8, !tbaa !111
  switch i32 %13, label %14 [
    i32 150, label %17
    i32 151, label %17
    i32 166, label %17
  ]

14:                                               ; preds = %9
  %15 = load ptr, ptr %8, align 8, !tbaa !82
  %16 = tail call i32 @ff_thread_get_buffer(ptr noundef nonnull %5, ptr noundef %15, i32 noundef %2) #10
  br label %29

17:                                               ; preds = %9, %9, %9
  %18 = getelementptr inbounds nuw i8, ptr %5, i64 112
  %19 = load i32, ptr %18, align 8, !tbaa !112
  %20 = load ptr, ptr %8, align 8, !tbaa !82
  %21 = getelementptr inbounds nuw i8, ptr %20, i64 104
  store i32 %19, ptr %21, align 8, !tbaa !95
  %22 = getelementptr inbounds nuw i8, ptr %5, i64 116
  %23 = load i32, ptr %22, align 4, !tbaa !113
  %24 = getelementptr inbounds nuw i8, ptr %20, i64 108
  store i32 %23, ptr %24, align 4, !tbaa !88
  %25 = getelementptr inbounds nuw i8, ptr %5, i64 136
  %26 = load i32, ptr %25, align 8, !tbaa !74
  %27 = getelementptr inbounds nuw i8, ptr %20, i64 116
  store i32 %26, ptr %27, align 4, !tbaa !98
  %28 = tail call i32 @avcodec_default_get_buffer2(ptr noundef nonnull %5, ptr noundef %20, i32 noundef 0) #10
  br label %29

29:                                               ; preds = %17, %14
  %.0 = phi i32 [ %16, %14 ], [ %28, %17 ]
  %30 = icmp slt i32 %.0, 0
  br i1 %30, label %49, label %31

31:                                               ; preds = %29
  %32 = load ptr, ptr %8, align 8, !tbaa !82
  %33 = getelementptr inbounds nuw i8, ptr %0, i64 568
  %34 = getelementptr inbounds nuw i8, ptr %0, i64 576
  %35 = tail call i32 @ff_mpv_pic_check_linesize(ptr noundef nonnull %5, ptr noundef %32, ptr noundef nonnull %33, ptr noundef nonnull %34) #10
  %36 = icmp slt i32 %35, 0
  br i1 %36, label %49, label %37

37:                                               ; preds = %31
  %38 = getelementptr inbounds nuw i8, ptr %8, i64 96
  %39 = tail call i32 @ff_hwaccel_frame_priv_alloc(ptr noundef nonnull %5, ptr noundef nonnull %38) #10
  %40 = icmp slt i32 %39, 0
  br i1 %40, label %49, label %41

41:                                               ; preds = %37
  %42 = load ptr, ptr %4, align 8, !tbaa !4
  %43 = getelementptr inbounds nuw i8, ptr %0, i64 1440
  %44 = getelementptr inbounds nuw i8, ptr %0, i64 592
  %45 = getelementptr inbounds nuw i8, ptr %0, i64 544
  %46 = load i32, ptr %45, align 8, !tbaa !114
  %47 = tail call i32 @ff_mpv_alloc_pic_accessories(ptr noundef %42, ptr noundef nonnull %1, ptr noundef nonnull %43, ptr noundef nonnull %44, i32 noundef %46) #10
  %48 = icmp slt i32 %47, 0
  br i1 %48, label %49, label %50

49:                                               ; preds = %41, %37, %31, %29
  %.1 = phi i32 [ %.0, %29 ], [ %35, %31 ], [ %39, %37 ], [ %47, %41 ]
  tail call void @ff_mpv_unref_picture(ptr noundef nonnull %1) #10
  br label %50

50:                                               ; preds = %41, %3, %49
  %.038 = phi i32 [ %.1, %49 ], [ -12, %3 ], [ 0, %41 ]
  ret i32 %.038
}